target datalayout = "e-m:e-p270:32:32-p271:32:32-p272:64:64-i64:64-i128:128-f80:128-n8:16:32:64-S128"
target triple = "x86_64-unknown-linux-gnu"

%"struct.OpenColorIO_v2_4dev::PackedImageDesc::Impl" = type <{ ptr, ptr, ptr, ptr, ptr, i32, i32, i64, i64, i64, i64, i64, i64, i8, i8, [6 x i8] }>
%"class.OpenColorIO_v2_4dev::PackedImageDesc" = type { %"class.OpenColorIO_v2_4dev::ImageDesc", ptr }
%"class.OpenColorIO_v2_4dev::ImageDesc" = type { ptr }

; Function Attrs: mustprogress nounwind uwtable
define linkonce_odr hidden noundef ptr @_ZNK19OpenColorIO_v2_4dev15PackedImageDesc7getImplEv(ptr noundef nonnull align 8 dereferenceable(16) %this) #6 comdat align 2 {
entry:
  %this.addr = alloca ptr, align 8
  store ptr %this, ptr %this.addr, align 8
  %this1 = load ptr, ptr %this.addr, align 8
  %m_impl = getelementptr inbounds %"class.OpenColorIO_v2_4dev::PackedImageDesc", ptr %this1, i32 0, i32 1
  %0 = load ptr, ptr %m_impl, align 8
  ret ptr %0
}

; Function Attrs: mustprogress uwtable
define noundef zeroext i1 @_ZNK19OpenColorIO_v2_4dev15PackedImageDesc12isRGBAPackedEv(ptr noundef nonnull align 8 dereferenceable(16) %this) unnamed_addr #4 align 2 {
entry:
  %this.addr = alloca ptr, align 8
  store ptr %this, ptr %this.addr, align 8
  %this1 = load ptr, ptr %this.addr, align 8
  %call = call noundef ptr @_ZNK19OpenColorIO_v2_4dev15PackedImageDesc7getImplEv(ptr noundef nonnull align 8 dereferenceable(16) %this1)
  %m_isRGBAPacked = getelementptr inbounds %"struct.OpenColorIO_v2_4dev::PackedImageDesc::Impl", ptr %call, i32 0, i32 13
  %0 = load i8, ptr %m_isRGBAPacked, align 8
  %tobool = trunc i8 %0 to i1
  ret i1 %tobool
}