; Function Attrs: mustprogress nofree norecurse nosync nounwind willreturn memory(read, inaccessiblemem: none) uwtable
define noundef zeroext i1 @_ZNK19OpenColorIO_v2_4dev15PackedImageDesc12isRGBAPackedEv(ptr nocapture noundef nonnull readonly align 8 dereferenceable(16) %this) unnamed_addr #5 align 2 {
entry:
  %m_impl.i = getelementptr inbounds i8, ptr %this, i64 8
  %0 = load ptr, ptr %m_impl.i, align 8
  %m_isRGBAPacked = getelementptr inbounds i8, ptr %0, i64 96
  %1 = load i8, ptr %m_isRGBAPacked, align 8
  %2 = and i8 %1, 1
  %tobool = icmp ne i8 %2, 0
  ret i1 %tobool
}